; Function Attrs: mustprogress uwtable
define void @_ZN3zmq20stream_engine_base_t17zap_msg_availableEv(ptr noundef nonnull align 8 dereferenceable(1689) %this) unnamed_addr #0 align 2 {
entry:
  %_mechanism = getelementptr inbounds i8, ptr %this, i64 1408
  %0 = load ptr, ptr %_mechanism, align 8
  %cmp.not = icmp eq ptr %0, null
  br i1 %cmp.not, label %if.then, label %do.end

if.then:                                          ; preds = %entry
  %1 = load ptr, ptr @stderr, align 8
  %call = tail call i32 (ptr, ptr, ...) @fprintf(ptr noundef %1, ptr noundef nonnull @.str.2, ptr noundef nonnull @.str.15, ptr noundef nonnull @.str.1, i32 noundef 493) #21
  %2 = load ptr, ptr @stderr, align 8
  %call2 = tail call i32 @fflush(ptr noundef %2)
  tail call void @_ZN3zmq9zmq_abortEPKc(ptr noundef nonnull @.str.15)
  %.pre = load ptr, ptr %_mechanism, align 8
  br label %do.end

do.end:                                           ; preds = %entry, %if.then
  %3 = phi ptr [ %0, %entry ], [ %.pre, %if.then ]
  %vtable = load ptr, ptr %3, align 8
  %vfn = getelementptr inbounds i8, ptr %vtable, i64 48
  %4 = load ptr, ptr %vfn, align 8
  %call4 = tail call noundef i32 %4(ptr noundef nonnull align 8 dereferenceable(1488) %3)
  %cmp5 = icmp eq i32 %call4, -1
  br i1 %cmp5, label %if.then6, label %if.end9

if.then6:                                         ; preds = %do.end
  %vtable7 = load ptr, ptr %this, align 8
  %vfn8 = getelementptr inbounds i8, ptr %vtable7, i64 96
  %5 = load ptr, ptr %vfn8, align 8
  tail call void %5(ptr noundef nonnull align 8 dereferenceable(1689) %this, i32 noundef 0)
  br label %if.end17

if.end9:                                          ; preds = %do.end
  %_input_stopped = getelementptr inbounds i8, ptr %this, i64 1456
  %6 = load i8, ptr %_input_stopped, align 8
  %7 = and i8 %6, 1
  %tobool.not = icmp eq i8 %7, 0
  br i1 %tobool.not, label %if.end14, label %if.then10

if.then10:                                        ; preds = %if.end9
  %call11 = tail call noundef zeroext i1 @_ZN3zmq20stream_engine_base_t13restart_inputEv(ptr noundef nonnull align 8 dereferenceable(1689) %this)
  br i1 %call11, label %if.end14, label %if.end17

if.end14:                                         ; preds = %if.then10, %if.end9
  %_output_stopped = getelementptr inbounds i8, ptr %this, i64 1457
  %8 = load i8, ptr %_output_stopped, align 1
  %9 = and i8 %8, 1
  %tobool15.not = icmp eq i8 %9, 0
  br i1 %tobool15.not, label %if.end17, label %if.then16

if.then16:                                        ; preds = %if.end14
  %_io_error.i = getelementptr inbounds i8, ptr %this, i64 1664
  %10 = load i8, ptr %_io_error.i, align 8
  %11 = and i8 %10, 1
  %tobool.not.i = icmp eq i8 %11, 0
  br i1 %tobool.not.i, label %if.end5.i, label %if.end17

if.end5.i:                                        ; preds = %if.then16
  %_handle.i.i = getelementptr inbounds i8, ptr %this, i64 1584
  %12 = load ptr, ptr %_handle.i.i, align 8
  tail call void @_ZN3zmq11io_object_t11set_polloutEPv(ptr noundef nonnull align 8 dereferenceable(16) %this, ptr noundef %12)
  store i8 0, ptr %_output_stopped, align 1
  %vtable.i = load ptr, ptr %this, align 8
  %vfn.i = getelementptr inbounds i8, ptr %vtable.i, i64 24
  %13 = load ptr, ptr %vfn.i, align 8
  tail call void %13(ptr noundef nonnull align 8 dereferenceable(1689) %this)
  br label %if.end17

if.end17:                                         ; preds = %if.end5.i, %if.then16, %if.then10, %if.end14, %if.then6
  ret void
}